target datalayout = "e-m:e-p270:32:32-p271:32:32-p272:64:64-i64:64-i128:128-f80:128-n8:16:32:64-S128"
target triple = "x86_64-pc-linux-gnu"

; Function Attrs: nounwind uwtable
define internal i32 @pg_ascii_dsplen(ptr noundef %0) #1 {
  %2 = alloca i32, align 4
  %3 = alloca ptr, align 8
  store ptr %0, ptr %3, align 8
  %4 = load ptr, ptr %3, align 8
  %5 = load i8, ptr %4, align 1
  %6 = zext i8 %5 to i32
  %7 = icmp eq i32 %6, 0
  br i1 %7, label %8, label %9

8:                                                ; preds = %1
  store i32 0, ptr %2, align 4
  br label %21

9:                                                ; preds = %1
  %10 = load ptr, ptr %3, align 8
  %11 = load i8, ptr %10, align 1
  %12 = zext i8 %11 to i32
  %13 = icmp slt i32 %12, 32
  br i1 %13, label %19, label %14

14:                                               ; preds = %9
  %15 = load ptr, ptr %3, align 8
  %16 = load i8, ptr %15, align 1
  %17 = zext i8 %16 to i32
  %18 = icmp eq i32 %17, 127
  br i1 %18, label %19, label %20

19:                                               ; preds = %14, %9
  store i32 -1, ptr %2, align 4
  br label %21

20:                                               ; preds = %14
  store i32 1, ptr %2, align 4
  br label %21

21:                                               ; preds = %20, %19, %8
  %22 = load i32, ptr %2, align 4
  ret i32 %22
}

; Function Attrs: nounwind uwtable
define internal i32 @pg_euctw_dsplen(ptr noundef %0) #1 {
  %2 = alloca ptr, align 8
  %3 = alloca i32, align 4
  store ptr %0, ptr %2, align 8
  call void @llvm.lifetime.start.p0(i64 4, ptr %3) #7
  %4 = load ptr, ptr %2, align 8
  %5 = load i8, ptr %4, align 1
  %6 = zext i8 %5 to i32
  %7 = icmp eq i32 %6, 142
  br i1 %7, label %8, label %9

8:                                                ; preds = %1
  store i32 2, ptr %3, align 4
  br label %27

9:                                                ; preds = %1
  %10 = load ptr, ptr %2, align 8
  %11 = load i8, ptr %10, align 1
  %12 = zext i8 %11 to i32
  %13 = icmp eq i32 %12, 143
  br i1 %13, label %14, label %15

14:                                               ; preds = %9
  store i32 2, ptr %3, align 4
  br label %26

15:                                               ; preds = %9
  %16 = load ptr, ptr %2, align 8
  %17 = load i8, ptr %16, align 1
  %18 = zext i8 %17 to i32
  %19 = and i32 %18, 128
  %20 = icmp ne i32 %19, 0
  br i1 %20, label %21, label %22

21:                                               ; preds = %15
  store i32 2, ptr %3, align 4
  br label %25

22:                                               ; preds = %15
  %23 = load ptr, ptr %2, align 8
  %24 = call i32 @pg_ascii_dsplen(ptr noundef %23)
  store i32 %24, ptr %3, align 4
  br label %25

25:                                               ; preds = %22, %21
  br label %26

26:                                               ; preds = %25, %14
  br label %27

27:                                               ; preds = %26, %8
  %28 = load i32, ptr %3, align 4
  call void @llvm.lifetime.end.p0(i64 4, ptr %3) #7
  ret i32 %28
}